; Function Attrs: mustprogress uwtable
define hidden noundef ptr @_ZN6google8protobuf8internal19ImplicitWeakMessage14_InternalParseEPKcPNS1_12ParseContextE(ptr noundef nonnull align 8 dereferenceable(48) %0, ptr noundef %1, ptr noundef nonnull %2) unnamed_addr #3 align 2 {
  %4 = alloca %class.anon, align 8
  %5 = getelementptr inbounds nuw i8, ptr %0, i64 16
  call void @llvm.lifetime.start.p0(i64 8, ptr nonnull %4) #16
  store ptr %5, ptr %4, align 8, !tbaa !3
  %6 = call noundef ptr @_ZN6google8protobuf8internal18EpsCopyInputStream14AppendUntilEndIZNS2_12AppendStringEPKcPNSt7__cxx1112basic_stringIcSt11char_traitsIcESaIcEEEEUlS5_lE_EES5_S5_RKT_(ptr noundef nonnull align 8 dereferenceable(88) %2, ptr noundef %1, ptr noundef nonnull align 8 dereferenceable(8) %4)
  call void @llvm.lifetime.end.p0(i64 8, ptr nonnull %4) #16
  ret ptr %6
}